target datalayout = "e-m:e-p270:32:32-p271:32:32-p272:64:64-i64:64-i128:128-f80:128-n8:16:32:64-S128"
target triple = "x86_64-pc-linux-gnu"

%struct.deal = type { i32, i32, [3 x i32], [3 x i32], [4 x [4 x i32]] }
%struct.moveType = type { i32, i32, i32, i32 }
%struct.ThreadData = type { [4 x i32], i32, i8, [4 x [4 x i16]], i32, %struct.pos, i8, [50 x [4 x i16]], [13 x %struct.WinnersType], [14 x %struct.moveType], [50 x %struct.moveType], [50 x %struct.moveType], double, i32, i32, [8192 x %struct.relRanksType], ptr, %class.Moves }
%struct.pos = type { [4 x [4 x i16]], [4 x i16], [4 x [4 x i8]], [4 x i32], [50 x [4 x i16]], [50 x i32], [50 x %struct.moveType], i32, i32, [4 x %struct.highCardType], [4 x %struct.highCardType] }
%struct.highCardType = type { i32, i32 }
%struct.WinnersType = type { i32, [4 x %struct.WinnerEntryType] }
%struct.WinnerEntryType = type { i32, i32, i32, i32, i32 }
%struct.relRanksType = type { [15 x [4 x %struct.absRankType]] }
%struct.absRankType = type { i8, i8 }
%class.Moves = type { i32, i32, i32, i32, i32, i32, i32, i32, i32, [13 x %"struct.Moves::trackType"], ptr, [13 x [4 x %struct.movePlyType]], ptr, [13 x [4 x i32]], [13 x %"class.std::__cxx11::basic_string"], [13 x [4 x %"struct.Moves::moveStatType"]], [13 x [4 x %"struct.Moves::moveStatType"]], [13 x [4 x %"struct.Moves::moveStatsType"]], [13 x [4 x %"struct.Moves::moveStatsType"]], %"struct.Moves::moveStatsType", %"struct.Moves::moveStatsType", [16 x { i64, i64 }] }
%"struct.Moves::trackType" = type { i32, i32, [4 x i32], [4 x i32], %struct.trickDataType, [4 x %struct.extCard], [4 x i32], [4 x [4 x i32]], [4 x i32] }
%struct.trickDataType = type { [4 x i32], i32, i32, i32, i32, i32 }
%struct.extCard = type { i32, i32, i32 }
%struct.movePlyType = type { [14 x %struct.moveType], i32, i32 }
%"class.std::__cxx11::basic_string" = type { %"struct.std::__cxx11::basic_string<char>::_Alloc_hider", i64, %union.anon }
%"struct.std::__cxx11::basic_string<char>::_Alloc_hider" = type { ptr }
%union.anon = type { i64, [8 x i8] }
%"struct.Moves::moveStatType" = type { i32, i32, i32, i32 }
%"struct.Moves::moveStatsType" = type { i32, [13 x %"struct.Moves::moveStatType"] }
%struct.futureTricks = type { i32, i32, [13 x i32], [13 x i32], [13 x i32], [13 x i32] }

; Function Attrs: mustprogress uwtable
define noundef i32 @_Z14SolveSameBoardP10ThreadDataRK4dealP12futureTricksi(ptr noundef %0, ptr noundef nonnull align 4 dereferenceable(96) %1, ptr noundef %2, i32 noundef %3) #4 {
  %5 = alloca ptr, align 8
  %6 = alloca ptr, align 8
  %7 = alloca ptr, align 8
  %8 = alloca i32, align 4
  %9 = alloca i32, align 4
  %10 = alloca i32, align 4
  %11 = alloca i32, align 4
  %12 = alloca i32, align 4
  %13 = alloca i32, align 4
  store ptr %0, ptr %5, align 8
  store ptr %1, ptr %6, align 8
  store ptr %2, ptr %7, align 8
  store i32 %3, ptr %8, align 4
  %14 = load ptr, ptr %5, align 8
  %15 = getelementptr inbounds nuw %struct.ThreadData, ptr %14, i32 0, i32 1
  %16 = load i32, ptr %15, align 8
  store i32 %16, ptr %9, align 4
  %17 = load i32, ptr %9, align 4
  %18 = add nsw i32 %17, 3
  %19 = ashr i32 %18, 2
  store i32 %19, ptr %10, align 4
  %20 = load ptr, ptr %5, align 8
  %21 = getelementptr inbounds nuw %struct.ThreadData, ptr %20, i32 0, i32 14
  store i32 0, ptr %21, align 4
  %22 = load ptr, ptr %6, align 8
  %23 = getelementptr inbounds nuw %struct.deal, ptr %22, i32 0, i32 1
  %24 = load i32, ptr %23, align 4
  %25 = load ptr, ptr %5, align 8
  %26 = getelementptr inbounds nuw %struct.ThreadData, ptr %25, i32 0, i32 5
  %27 = getelementptr inbounds nuw %struct.pos, ptr %26, i32 0, i32 5
  %28 = load i32, ptr %9, align 4
  %29 = sext i32 %28 to i64
  %30 = getelementptr inbounds [50 x i32], ptr %27, i64 0, i64 %29
  store i32 %24, ptr %30, align 4
  %31 = load ptr, ptr %6, align 8
  %32 = getelementptr inbounds nuw %struct.deal, ptr %31, i32 0, i32 1
  %33 = load i32, ptr %32, align 4
  %34 = icmp eq i32 %33, 0
  br i1 %34, label %40, label %35

35:                                               ; preds = %4
  %36 = load ptr, ptr %6, align 8
  %37 = getelementptr inbounds nuw %struct.deal, ptr %36, i32 0, i32 1
  %38 = load i32, ptr %37, align 4
  %39 = icmp eq i32 %38, 2
  br i1 %39, label %40, label %53

40:                                               ; preds = %35, %4
  %41 = load ptr, ptr %5, align 8
  %42 = getelementptr inbounds nuw %struct.ThreadData, ptr %41, i32 0, i32 0
  %43 = getelementptr inbounds [4 x i32], ptr %42, i64 0, i64 0
  store i32 1, ptr %43, align 8
  %44 = load ptr, ptr %5, align 8
  %45 = getelementptr inbounds nuw %struct.ThreadData, ptr %44, i32 0, i32 0
  %46 = getelementptr inbounds [4 x i32], ptr %45, i64 0, i64 1
  store i32 0, ptr %46, align 4
  %47 = load ptr, ptr %5, align 8
  %48 = getelementptr inbounds nuw %struct.ThreadData, ptr %47, i32 0, i32 0
  %49 = getelementptr inbounds [4 x i32], ptr %48, i64 0, i64 2
  store i32 1, ptr %49, align 8
  %50 = load ptr, ptr %5, align 8
  %51 = getelementptr inbounds nuw %struct.ThreadData, ptr %50, i32 0, i32 0
  %52 = getelementptr inbounds [4 x i32], ptr %51, i64 0, i64 3
  store i32 0, ptr %52, align 4
  br label %66

53:                                               ; preds = %35
  %54 = load ptr, ptr %5, align 8
  %55 = getelementptr inbounds nuw %struct.ThreadData, ptr %54, i32 0, i32 0
  %56 = getelementptr inbounds [4 x i32], ptr %55, i64 0, i64 0
  store i32 0, ptr %56, align 8
  %57 = load ptr, ptr %5, align 8
  %58 = getelementptr inbounds nuw %struct.ThreadData, ptr %57, i32 0, i32 0
  %59 = getelementptr inbounds [4 x i32], ptr %58, i64 0, i64 1
  store i32 1, ptr %59, align 4
  %60 = load ptr, ptr %5, align 8
  %61 = getelementptr inbounds nuw %struct.ThreadData, ptr %60, i32 0, i32 0
  %62 = getelementptr inbounds [4 x i32], ptr %61, i64 0, i64 2
  store i32 0, ptr %62, align 8
  %63 = load ptr, ptr %5, align 8
  %64 = getelementptr inbounds nuw %struct.ThreadData, ptr %63, i32 0, i32 0
  %65 = getelementptr inbounds [4 x i32], ptr %64, i64 0, i64 3
  store i32 1, ptr %65, align 4
  br label %66

66:                                               ; preds = %53, %40
  %67 = load ptr, ptr %5, align 8
  %68 = getelementptr inbounds nuw %struct.ThreadData, ptr %67, i32 0, i32 17
  %69 = load i32, ptr %10, align 4
  %70 = load ptr, ptr %6, align 8
  %71 = getelementptr inbounds nuw %struct.deal, ptr %70, i32 0, i32 1
  %72 = load i32, ptr %71, align 4
  call void @_ZN5Moves6ReinitEii(ptr noundef nonnull align 8 dereferenceable(39992) %68, i32 noundef %69, i32 noundef %72)
  %73 = load i32, ptr %8, align 4
  store i32 %73, ptr %11, align 4
  store i32 0, ptr %12, align 4
  store i32 13, ptr %13, align 4
  br label %74

74:                                               ; preds = %96, %66
  %75 = load ptr, ptr %5, align 8
  call void @_Z14ResetBestMovesP10ThreadData(ptr noundef %75)
  %76 = load ptr, ptr %5, align 8
  %77 = getelementptr inbounds nuw %struct.ThreadData, ptr %76, i32 0, i32 5
  %78 = load i32, ptr %11, align 4
  %79 = load i32, ptr %9, align 4
  %80 = load ptr, ptr %5, align 8
  %81 = call noundef zeroext i1 @_Z8ABsearchP3posiiP10ThreadData(ptr noundef %77, i32 noundef %78, i32 noundef %79, ptr noundef %80)
  %82 = load ptr, ptr %5, align 8
  %83 = getelementptr inbounds nuw %struct.ThreadData, ptr %82, i32 0, i32 2
  %84 = zext i1 %81 to i8
  store i8 %84, ptr %83, align 4
  %85 = load ptr, ptr %5, align 8
  %86 = getelementptr inbounds nuw %struct.ThreadData, ptr %85, i32 0, i32 2
  %87 = load i8, ptr %86, align 4
  %88 = trunc i8 %87 to i1
  br i1 %88, label %89, label %92

89:                                               ; preds = %74
  %90 = load i32, ptr %11, align 4
  %91 = add nsw i32 %90, 1
  store i32 %91, ptr %11, align 4
  store i32 %90, ptr %12, align 4
  br label %95

92:                                               ; preds = %74
  %93 = load i32, ptr %11, align 4
  %94 = add nsw i32 %93, -1
  store i32 %94, ptr %11, align 4
  store i32 %94, ptr %13, align 4
  br label %95

95:                                               ; preds = %92, %89
  br label %96

96:                                               ; preds = %95
  %97 = load i32, ptr %12, align 4
  %98 = load i32, ptr %13, align 4
  %99 = icmp slt i32 %97, %98
  br i1 %99, label %74, label %100, !llvm.loop !35

100:                                              ; preds = %96
  %101 = load ptr, ptr %7, align 8
  %102 = getelementptr inbounds nuw %struct.futureTricks, ptr %101, i32 0, i32 1
  store i32 1, ptr %102, align 4
  %103 = load i32, ptr %12, align 4
  %104 = load ptr, ptr %7, align 8
  %105 = getelementptr inbounds nuw %struct.futureTricks, ptr %104, i32 0, i32 5
  %106 = getelementptr inbounds [13 x i32], ptr %105, i64 0, i64 0
  store i32 %103, ptr %106, align 4
  %107 = load ptr, ptr %5, align 8
  %108 = getelementptr inbounds nuw %struct.ThreadData, ptr %107, i32 0, i32 16
  %109 = load ptr, ptr %108, align 8
  %110 = load ptr, ptr %109, align 8
  %111 = getelementptr inbounds ptr, ptr %110, i64 8
  %112 = load ptr, ptr %111, align 8
  %113 = call noundef double %112(ptr noundef nonnull align 8 dereferenceable(8) %109)
  %114 = call noundef double @_Z16ThreadMemoryUsedv()
  %115 = fadd double %113, %114
  %116 = load ptr, ptr %5, align 8
  %117 = getelementptr inbounds nuw %struct.ThreadData, ptr %116, i32 0, i32 12
  store double %115, ptr %117, align 8
  %118 = load ptr, ptr %5, align 8
  %119 = getelementptr inbounds nuw %struct.ThreadData, ptr %118, i32 0, i32 14
  %120 = load i32, ptr %119, align 4
  %121 = load ptr, ptr %7, align 8
  %122 = getelementptr inbounds nuw %struct.futureTricks, ptr %121, i32 0, i32 0
  store i32 %120, ptr %122, align 4
  ret i32 1
}