; Function Attrs: mustprogress uwtable
define noundef i32 @_Z14SolveSameBoardP10ThreadDataRK4dealP12futureTricksi(ptr noundef initializes((0, 16), (4940, 4944)) %0, ptr noundef nonnull readonly align 4 captures(none) dereferenceable(96) %1, ptr noundef writeonly captures(none) %2, i32 noundef %3) local_unnamed_addr #3 {
  %5 = getelementptr inbounds nuw i8, ptr %0, i64 16
  %6 = load i32, ptr %5, align 8
  %7 = add nsw i32 %6, 3
  %8 = ashr i32 %7, 2
  %9 = getelementptr inbounds nuw i8, ptr %0, i64 4940
  store i32 0, ptr %9, align 4
  %10 = getelementptr inbounds nuw i8, ptr %1, i64 4
  %11 = load i32, ptr %10, align 4
  %12 = getelementptr inbounds nuw i8, ptr %0, i64 60
  %13 = getelementptr inbounds nuw i8, ptr %0, i64 532
  %14 = sext i32 %6 to i64
  %15 = getelementptr inbounds [50 x i32], ptr %13, i64 0, i64 %14
  store i32 %11, ptr %15, align 4
  switch i32 %11, label %16 [
    i32 0, label %17
    i32 2, label %17
  ]

16:                                               ; preds = %4
  br label %17

17:                                               ; preds = %4, %4, %16
  %.sink47 = phi i32 [ 0, %16 ], [ 1, %4 ], [ 1, %4 ]
  %.sink45 = phi i32 [ 1, %16 ], [ 0, %4 ], [ 0, %4 ]
  store i32 %.sink47, ptr %0, align 8
  %18 = getelementptr inbounds nuw i8, ptr %0, i64 4
  store i32 %.sink45, ptr %18, align 4
  %19 = getelementptr inbounds nuw i8, ptr %0, i64 8
  store i32 %.sink47, ptr %19, align 8
  %20 = getelementptr inbounds nuw i8, ptr %0, i64 12
  store i32 %.sink45, ptr %20, align 4
  %21 = getelementptr inbounds nuw i8, ptr %0, i64 987992
  %22 = load i32, ptr %10, align 4
  tail call void @_ZN5Moves6ReinitEii(ptr noundef nonnull align 8 dereferenceable(39992) %21, i32 noundef %8, i32 noundef %22)
  %23 = getelementptr inbounds nuw i8, ptr %0, i64 20
  br label %24

24:                                               ; preds = %24, %17
  %.039 = phi i32 [ %3, %17 ], [ %.140, %24 ]
  %.037 = phi i32 [ 0, %17 ], [ %.138, %24 ]
  %.0 = phi i32 [ 13, %17 ], [ %.1, %24 ]
  tail call void @_Z14ResetBestMovesP10ThreadData(ptr noundef nonnull %0)
  %25 = tail call noundef zeroext i1 @_Z8ABsearchP3posiiP10ThreadData(ptr noundef nonnull %12, i32 noundef %.039, i32 noundef %6, ptr noundef nonnull %0)
  %26 = zext i1 %25 to i8
  store i8 %26, ptr %23, align 4
  %27 = add nsw i32 %.039, 1
  %28 = add nsw i32 %.039, -1
  %.140 = select i1 %25, i32 %27, i32 %28
  %.138 = select i1 %25, i32 %.039, i32 %.037
  %.1 = select i1 %25, i32 %.0, i32 %28
  %29 = icmp slt i32 %.138, %.1
  br i1 %29, label %24, label %30, !llvm.loop !35

30:                                               ; preds = %24
  %31 = getelementptr inbounds nuw i8, ptr %2, i64 4
  store i32 1, ptr %31, align 4
  %32 = getelementptr inbounds nuw i8, ptr %2, i64 164
  store i32 %.138, ptr %32, align 4
  %33 = getelementptr inbounds nuw i8, ptr %0, i64 987984
  %34 = load ptr, ptr %33, align 8
  %35 = load ptr, ptr %34, align 8
  %36 = getelementptr inbounds nuw i8, ptr %35, i64 64
  %37 = load ptr, ptr %36, align 8
  %38 = tail call noundef double %37(ptr noundef nonnull align 8 dereferenceable(8) %34)
  %39 = tail call noundef double @_Z16ThreadMemoryUsedv()
  %40 = fadd double %38, %39
  %41 = getelementptr inbounds nuw i8, ptr %0, i64 4928
  store double %40, ptr %41, align 8
  %42 = load i32, ptr %9, align 4
  store i32 %42, ptr %2, align 4
  ret i32 1
}